; Function Attrs: nounwind uwtable
define ptr @l___private_Lean_Server_Requests_0__Lean_Server_overrideStatefulLspRequestHandler___lambda__5(ptr noundef %0, ptr noundef %1, ptr noundef %2, ptr noundef %3, ptr noundef %4, ptr noundef %5, ptr noundef %6, ptr noundef %7, ptr noundef %8, ptr noundef %9) #1 {
  tail call void @lean_inc_heartbeat() #6
  %11 = tail call noalias ptr @mi_malloc_small(i64 noundef 80) #6
  %12 = icmp eq ptr %11, null
  br i1 %12, label %13, label %lean_alloc_closure.exit

13:                                               ; preds = %10
  tail call void @lean_internal_panic_out_of_memory() #7
  unreachable

lean_alloc_closure.exit:                          ; preds = %10
  %14 = getelementptr inbounds nuw i8, ptr %11, i64 4
  store i32 1, ptr %11, align 4, !tbaa !4
  store i32 -184549296, ptr %14, align 4
  %15 = getelementptr inbounds nuw i8, ptr %11, i64 8
  store ptr @l___private_Lean_Server_Requests_0__Lean_Server_overrideStatefulLspRequestHandler___lambda__4___boxed, ptr %15, align 8, !tbaa !9
  %16 = getelementptr inbounds nuw i8, ptr %11, i64 16
  store i16 11, ptr %16, align 8, !tbaa !15
  %17 = getelementptr inbounds nuw i8, ptr %11, i64 18
  store i16 7, ptr %17, align 2, !tbaa !15
  %18 = getelementptr inbounds nuw i8, ptr %11, i64 24
  store ptr %0, ptr %18, align 8, !tbaa !9
  %19 = getelementptr inbounds nuw i8, ptr %11, i64 32
  store ptr %1, ptr %19, align 8, !tbaa !9
  %20 = getelementptr inbounds nuw i8, ptr %11, i64 40
  store ptr %7, ptr %20, align 8, !tbaa !9
  %21 = getelementptr inbounds nuw i8, ptr %11, i64 48
  store ptr %2, ptr %21, align 8, !tbaa !9
  %22 = getelementptr inbounds nuw i8, ptr %11, i64 56
  store ptr %3, ptr %22, align 8, !tbaa !9
  %23 = getelementptr inbounds nuw i8, ptr %11, i64 64
  store ptr %4, ptr %23, align 8, !tbaa !9
  %24 = getelementptr inbounds nuw i8, ptr %11, i64 72
  store ptr %5, ptr %24, align 8, !tbaa !9
  %25 = load ptr, ptr @l___private_Lean_Server_Requests_0__Lean_Server_overrideStatefulLspRequestHandler___lambda__5___closed__1, align 8, !tbaa !9
  tail call void @lean_inc_heartbeat() #6
  %26 = tail call noalias ptr @mi_malloc_small(i64 noundef 40) #6
  %27 = icmp eq ptr %26, null
  br i1 %27, label %28, label %lean_alloc_closure.exit23

28:                                               ; preds = %lean_alloc_closure.exit
  tail call void @lean_internal_panic_out_of_memory() #7
  unreachable

lean_alloc_closure.exit23:                        ; preds = %lean_alloc_closure.exit
  %29 = getelementptr inbounds nuw i8, ptr %26, i64 4
  store i32 1, ptr %26, align 4, !tbaa !4
  store i32 -184549336, ptr %29, align 4
  %30 = getelementptr inbounds nuw i8, ptr %26, i64 8
  store ptr @l_ReaderT_bind___at___private_Lean_Server_Requests_0__Lean_Server_overrideStatefulLspRequestHandler___spec__2___rarg, ptr %30, align 8, !tbaa !9
  %31 = getelementptr inbounds nuw i8, ptr %26, i64 16
  store i16 5, ptr %31, align 8, !tbaa !15
  %32 = getelementptr inbounds nuw i8, ptr %26, i64 18
  store i16 2, ptr %32, align 2, !tbaa !15
  %33 = getelementptr inbounds nuw i8, ptr %26, i64 24
  store ptr %25, ptr %33, align 8, !tbaa !9
  %34 = getelementptr inbounds nuw i8, ptr %26, i64 32
  store ptr %11, ptr %34, align 8, !tbaa !9
  %35 = tail call ptr @l_Std_Mutex_atomically___at___private_Lean_Server_Requests_0__Lean_Server_overrideStatefulLspRequestHandler___spec__3(ptr noundef %6, ptr noundef nonnull %26, ptr noundef %8, ptr noundef %9)
  ret ptr %35
}